target datalayout = "e-m:e-p270:32:32-p271:32:32-p272:64:64-i64:64-i128:128-f80:128-n8:16:32:64-S128"
target triple = "x86_64-pc-linux-gnu"

@_ZN12GraphBuilder9_can_trapE = hidden global [203 x i8] zeroinitializer, align 16

; Function Attrs: mustprogress nounwind uwtable
define hidden void @_ZN12GraphBuilder10initializeEv() #1 align 2 {
  %1 = alloca [41 x i32], align 16
  %2 = alloca i32, align 4
  %3 = alloca i32, align 4
  call void @llvm.memcpy.p0.p0.i64(ptr align 16 %1, ptr align 16 @__const._ZN12GraphBuilder10initializeEv.can_trap_list, i64 164, i1 false)
  store i32 0, ptr %2, align 4
  br label %4

4:                                                ; preds = %11, %0
  %5 = load i32, ptr %2, align 4
  %6 = icmp slt i32 %5, 203
  br i1 %6, label %7, label %14

7:                                                ; preds = %4
  %8 = load i32, ptr %2, align 4
  %9 = sext i32 %8 to i64
  %10 = getelementptr inbounds [203 x i8], ptr @_ZN12GraphBuilder9_can_trapE, i64 0, i64 %9
  store i8 0, ptr %10, align 1
  br label %11

11:                                               ; preds = %7
  %12 = load i32, ptr %2, align 4
  %13 = add nsw i32 %12, 1
  store i32 %13, ptr %2, align 4
  br label %4, !llvm.loop !34

14:                                               ; preds = %4
  store i32 0, ptr %3, align 4
  br label %15

15:                                               ; preds = %26, %14
  %16 = load i32, ptr %3, align 4
  %17 = zext i32 %16 to i64
  %18 = icmp ult i64 %17, 41
  br i1 %18, label %19, label %29

19:                                               ; preds = %15
  %20 = load i32, ptr %3, align 4
  %21 = zext i32 %20 to i64
  %22 = getelementptr inbounds [41 x i32], ptr %1, i64 0, i64 %21
  %23 = load i32, ptr %22, align 4
  %24 = sext i32 %23 to i64
  %25 = getelementptr inbounds [203 x i8], ptr @_ZN12GraphBuilder9_can_trapE, i64 0, i64 %24
  store i8 1, ptr %25, align 1
  br label %26

26:                                               ; preds = %19
  %27 = load i32, ptr %3, align 4
  %28 = add i32 %27, 1
  store i32 %28, ptr %3, align 4
  br label %15, !llvm.loop !35

29:                                               ; preds = %15
  ret void
}