; Function Attrs: mustprogress nofree norecurse nosync nounwind memory(write, argmem: none, inaccessiblemem: none) uwtable
define hidden void @_ZN12GraphBuilder10initializeEv() local_unnamed_addr #10 align 2 {
.preheader.preheader:
  tail call void @llvm.memset.p0.i64(ptr noundef nonnull align 16 dereferenceable(203) @_ZN12GraphBuilder9_can_trapE, i8 0, i64 203, i1 false)
  br label %.preheader

.preheader:                                       ; preds = %.preheader.preheader, %.preheader
  %indvars.iv = phi i64 [ 0, %.preheader.preheader ], [ %indvars.iv.next, %.preheader ]
  %0 = getelementptr inbounds [41 x i32], ptr @__const._ZN12GraphBuilder10initializeEv.can_trap_list, i64 0, i64 %indvars.iv
  %1 = load i32, ptr %0, align 4
  %2 = sext i32 %1 to i64
  %3 = getelementptr inbounds [203 x i8], ptr @_ZN12GraphBuilder9_can_trapE, i64 0, i64 %2
  store i8 1, ptr %3, align 1
  %indvars.iv.next = add nuw nsw i64 %indvars.iv, 1
  %exitcond.not = icmp eq i64 %indvars.iv.next, 41
  br i1 %exitcond.not, label %4, label %.preheader, !llvm.loop !44

4:                                                ; preds = %.preheader
  ret void
}